target datalayout = "e-m:e-p270:32:32-p271:32:32-p272:64:64-i64:64-i128:128-f80:128-n8:16:32:64-S128"
target triple = "x86_64-pc-linux-gnu"

%union.pthread_mutex_t = type { %struct.__pthread_mutex_s }
%struct.__pthread_mutex_s = type { i32, i32, i32, i32, i32, i16, i16, %struct.__pthread_internal_list }
%struct.__pthread_internal_list = type { ptr, ptr }
%struct.thread_status_t = type { ptr, i64, %union.pthread_mutex_t, %union.pthread_cond_t, [24 x i8] }
%union.pthread_cond_t = type { %struct.__pthread_cond_s }
%struct.__pthread_cond_s = type { %union.__atomic_wide_counter, %union.__atomic_wide_counter, [2 x i32], [2 x i32], i32, i32, [2 x i32] }
%union.__atomic_wide_counter = type { i64 }
%struct.blas_queue = type { ptr, i64, i64, ptr, ptr, ptr, ptr, ptr, ptr, %union.pthread_mutex_t, %union.pthread_cond_t, i32, i32 }

@blas_server_avail = global i32 0, align 128
@blas_num_threads = external global i32, align 4
@thread_status = internal global [16 x %struct.thread_status_t] zeroinitializer, align 128
@exec_queue_lock = internal global i64 0, align 8

; Function Attrs: inlinehint nounwind uwtable
define internal void @blas_unlock(ptr noundef %0) #7 {
  %2 = alloca ptr, align 8
  store ptr %0, ptr %2, align 8, !tbaa !36
  br label %3

3:                                                ; preds = %1
  call void asm sideeffect "", "~{memory},~{dirflag},~{fpsr},~{flags}"() #8, !srcloc !42
  br label %4

4:                                                ; preds = %3
  %5 = load ptr, ptr %2, align 8, !tbaa !36
  store volatile i64 0, ptr %5, align 8, !tbaa !7
  ret void
}

; Function Attrs: inlinehint nounwind uwtable
define internal void @blas_lock(ptr noundef %0) #7 {
  %2 = alloca ptr, align 8
  %3 = alloca i32, align 4
  store ptr %0, ptr %2, align 8, !tbaa !36
  call void @llvm.lifetime.start.p0(i64 4, ptr %3) #8
  br label %4

4:                                                ; preds = %14, %1
  br label %5

5:                                                ; preds = %9, %4
  %6 = load ptr, ptr %2, align 8, !tbaa !36
  %7 = load volatile i64, ptr %6, align 8, !tbaa !7
  %8 = icmp ne i64 %7, 0
  br i1 %8, label %9, label %10

9:                                                ; preds = %5
  call void asm sideeffect "nop;nop;nop;nop;nop;nop;nop;nop;\0A", "~{dirflag},~{fpsr},~{flags}"() #8, !srcloc !38
  br label %5, !llvm.loop !39

10:                                               ; preds = %5
  %11 = load ptr, ptr %2, align 8, !tbaa !36
  %12 = load ptr, ptr %2, align 8, !tbaa !36
  %13 = call i32 asm sideeffect "xchgl $0, $1\0A", "=r,=*m,0,*m,~{memory},~{dirflag},~{fpsr},~{flags}"(ptr elementtype(i64) %11, i32 1, ptr elementtype(i64) %12) #8, !srcloc !40
  store i32 %13, ptr %3, align 4, !tbaa !3
  br label %14

14:                                               ; preds = %10
  %15 = load i32, ptr %3, align 4, !tbaa !3
  %16 = icmp ne i32 %15, 0
  br i1 %16, label %4, label %17, !llvm.loop !41

17:                                               ; preds = %14
  call void @llvm.lifetime.end.p0(i64 4, ptr %3) #8
  ret void
}

; Function Attrs: nounwind uwtable
define i32 @exec_blas_async(i64 noundef %0, ptr noundef %1) #0 {
  %3 = alloca i64, align 8
  %4 = alloca ptr, align 8
  %5 = alloca i64, align 8
  %6 = alloca ptr, align 8
  %7 = alloca ptr, align 8
  %8 = alloca ptr, align 8
  %9 = alloca ptr, align 8
  %10 = alloca ptr, align 8
  %11 = alloca ptr, align 8
  %12 = alloca ptr, align 8
  store i64 %0, ptr %3, align 8, !tbaa !7
  store ptr %1, ptr %4, align 8, !tbaa !11
  %13 = load i32, ptr @blas_server_avail, align 128, !tbaa !3
  %14 = icmp eq i32 %13, 0
  %15 = xor i1 %14, true
  %16 = xor i1 %15, true
  %17 = zext i1 %16 to i32
  %18 = sext i32 %17 to i64
  %19 = call i64 @llvm.expect.i64(i64 %18, i64 0)
  %20 = icmp ne i64 %19, 0
  br i1 %20, label %21, label %23

21:                                               ; preds = %2
  %22 = call i32 @blas_thread_init()
  br label %23

23:                                               ; preds = %21, %2
  call void @llvm.lifetime.start.p0(i64 8, ptr %5) #8
  store i64 0, ptr %5, align 8, !tbaa !7
  call void @llvm.lifetime.start.p0(i64 8, ptr %6) #8
  %24 = load ptr, ptr %4, align 8, !tbaa !11
  store ptr %24, ptr %6, align 8, !tbaa !11
  call void @llvm.lifetime.start.p0(i64 8, ptr %7) #8
  call void @llvm.lifetime.start.p0(i64 8, ptr %8) #8
  call void @blas_lock(ptr noundef @exec_queue_lock)
  br label %25

25:                                               ; preds = %61, %23
  %26 = load ptr, ptr %4, align 8, !tbaa !11
  %27 = icmp ne ptr %26, null
  br i1 %27, label %28, label %72

28:                                               ; preds = %25
  %29 = load i64, ptr %3, align 8, !tbaa !7
  %30 = load ptr, ptr %4, align 8, !tbaa !11
  %31 = getelementptr inbounds nuw %struct.blas_queue, ptr %30, i32 0, i32 1
  store i64 %29, ptr %31, align 8, !tbaa !28
  %32 = load i64, ptr %5, align 8, !tbaa !7
  %33 = getelementptr inbounds [16 x %struct.thread_status_t], ptr @thread_status, i64 0, i64 %32
  %34 = getelementptr inbounds nuw %struct.thread_status_t, ptr %33, i32 0, i32 0
  %35 = load atomic volatile i64, ptr %34 monotonic, align 128
  store i64 %35, ptr %9, align 8
  %36 = load ptr, ptr %9, align 8, !tbaa !11
  store ptr %36, ptr %7, align 8, !tbaa !11
  br label %37

37:                                               ; preds = %49, %28
  %38 = load ptr, ptr %7, align 8, !tbaa !11
  %39 = icmp ne ptr %38, null
  br i1 %39, label %40, label %55

40:                                               ; preds = %37
  %41 = load i64, ptr %5, align 8, !tbaa !7
  %42 = add nsw i64 %41, 1
  store i64 %42, ptr %5, align 8, !tbaa !7
  %43 = load i64, ptr %5, align 8, !tbaa !7
  %44 = load i32, ptr @blas_num_threads, align 4, !tbaa !3
  %45 = sub nsw i32 %44, 1
  %46 = sext i32 %45 to i64
  %47 = icmp sge i64 %43, %46
  br i1 %47, label %48, label %49

48:                                               ; preds = %40
  store i64 0, ptr %5, align 8, !tbaa !7
  br label %49

49:                                               ; preds = %48, %40
  %50 = load i64, ptr %5, align 8, !tbaa !7
  %51 = getelementptr inbounds [16 x %struct.thread_status_t], ptr @thread_status, i64 0, i64 %50
  %52 = getelementptr inbounds nuw %struct.thread_status_t, ptr %51, i32 0, i32 0
  %53 = load atomic volatile i64, ptr %52 monotonic, align 128
  store i64 %53, ptr %10, align 8
  %54 = load ptr, ptr %10, align 8, !tbaa !11
  store ptr %54, ptr %7, align 8, !tbaa !11
  br label %37, !llvm.loop !30

55:                                               ; preds = %37
  %56 = load i64, ptr %5, align 8, !tbaa !7
  %57 = load ptr, ptr %4, align 8, !tbaa !11
  %58 = getelementptr inbounds nuw %struct.blas_queue, ptr %57, i32 0, i32 2
  store i64 %56, ptr %58, align 8, !tbaa !31
  br label %59

59:                                               ; preds = %55
  call void asm sideeffect "", "~{memory},~{dirflag},~{fpsr},~{flags}"() #8, !srcloc !32
  br label %60

60:                                               ; preds = %59
  br label %61

61:                                               ; preds = %60
  %62 = load i64, ptr %5, align 8, !tbaa !7
  %63 = getelementptr inbounds [16 x %struct.thread_status_t], ptr @thread_status, i64 0, i64 %62
  %64 = getelementptr inbounds nuw %struct.thread_status_t, ptr %63, i32 0, i32 0
  %65 = load ptr, ptr %4, align 8, !tbaa !11
  store ptr %65, ptr %11, align 8, !tbaa !11
  %66 = load i64, ptr %11, align 8
  store atomic volatile i64 %66, ptr %64 monotonic, align 128
  %67 = load ptr, ptr %4, align 8, !tbaa !11
  %68 = getelementptr inbounds nuw %struct.blas_queue, ptr %67, i32 0, i32 8
  %69 = load ptr, ptr %68, align 8, !tbaa !33
  store ptr %69, ptr %4, align 8, !tbaa !11
  %70 = load i64, ptr %3, align 8, !tbaa !7
  %71 = add nsw i64 %70, 1
  store i64 %71, ptr %3, align 8, !tbaa !7
  br label %25, !llvm.loop !34

72:                                               ; preds = %25
  call void @blas_unlock(ptr noundef @exec_queue_lock)
  br label %73

73:                                               ; preds = %118, %72
  %74 = load ptr, ptr %6, align 8, !tbaa !11
  %75 = icmp ne ptr %74, null
  br i1 %75, label %76, label %122

76:                                               ; preds = %73
  %77 = load ptr, ptr %6, align 8, !tbaa !11
  %78 = getelementptr inbounds nuw %struct.blas_queue, ptr %77, i32 0, i32 2
  %79 = load i64, ptr %78, align 8, !tbaa !31
  store i64 %79, ptr %3, align 8, !tbaa !7
  %80 = load i64, ptr %3, align 8, !tbaa !7
  %81 = getelementptr inbounds [16 x %struct.thread_status_t], ptr @thread_status, i64 0, i64 %80
  %82 = getelementptr inbounds nuw %struct.thread_status_t, ptr %81, i32 0, i32 0
  %83 = load atomic volatile i64, ptr %82 monotonic, align 128
  store i64 %83, ptr %12, align 8
  %84 = load ptr, ptr %12, align 8, !tbaa !11
  store ptr %84, ptr %8, align 8, !tbaa !11
  %85 = load ptr, ptr %8, align 8, !tbaa !11
  %86 = ptrtoint ptr %85 to i64
  %87 = icmp ugt i64 %86, 1
  br i1 %87, label %88, label %118

88:                                               ; preds = %76
  %89 = load i64, ptr %3, align 8, !tbaa !7
  %90 = getelementptr inbounds [16 x %struct.thread_status_t], ptr @thread_status, i64 0, i64 %89
  %91 = getelementptr inbounds nuw %struct.thread_status_t, ptr %90, i32 0, i32 2
  %92 = call i32 @pthread_mutex_lock(ptr noundef %91) #8
  %93 = load i64, ptr %3, align 8, !tbaa !7
  %94 = getelementptr inbounds [16 x %struct.thread_status_t], ptr @thread_status, i64 0, i64 %93
  %95 = getelementptr inbounds nuw %struct.thread_status_t, ptr %94, i32 0, i32 1
  %96 = load volatile i64, ptr %95, align 8, !tbaa !13
  %97 = icmp eq i64 %96, 2
  br i1 %97, label %98, label %113

98:                                               ; preds = %88
  %99 = load i64, ptr %3, align 8, !tbaa !7
  %100 = getelementptr inbounds [16 x %struct.thread_status_t], ptr @thread_status, i64 0, i64 %99
  %101 = getelementptr inbounds nuw %struct.thread_status_t, ptr %100, i32 0, i32 1
  %102 = load volatile i64, ptr %101, align 8, !tbaa !13
  %103 = icmp eq i64 %102, 2
  br i1 %103, label %104, label %112

104:                                              ; preds = %98
  %105 = load i64, ptr %3, align 8, !tbaa !7
  %106 = getelementptr inbounds [16 x %struct.thread_status_t], ptr @thread_status, i64 0, i64 %105
  %107 = getelementptr inbounds nuw %struct.thread_status_t, ptr %106, i32 0, i32 1
  store volatile i64 4, ptr %107, align 8, !tbaa !13
  %108 = load i64, ptr %3, align 8, !tbaa !7
  %109 = getelementptr inbounds [16 x %struct.thread_status_t], ptr @thread_status, i64 0, i64 %108
  %110 = getelementptr inbounds nuw %struct.thread_status_t, ptr %109, i32 0, i32 3
  %111 = call i32 @pthread_cond_signal(ptr noundef %110) #8
  br label %112

112:                                              ; preds = %104, %98
  br label %113

113:                                              ; preds = %112, %88
  %114 = load i64, ptr %3, align 8, !tbaa !7
  %115 = getelementptr inbounds [16 x %struct.thread_status_t], ptr @thread_status, i64 0, i64 %114
  %116 = getelementptr inbounds nuw %struct.thread_status_t, ptr %115, i32 0, i32 2
  %117 = call i32 @pthread_mutex_unlock(ptr noundef %116) #8
  br label %118

118:                                              ; preds = %113, %76
  %119 = load ptr, ptr %6, align 8, !tbaa !11
  %120 = getelementptr inbounds nuw %struct.blas_queue, ptr %119, i32 0, i32 8
  %121 = load ptr, ptr %120, align 8, !tbaa !33
  store ptr %121, ptr %6, align 8, !tbaa !11
  br label %73, !llvm.loop !35

122:                                              ; preds = %73
  call void @llvm.lifetime.end.p0(i64 8, ptr %8) #8
  call void @llvm.lifetime.end.p0(i64 8, ptr %7) #8
  call void @llvm.lifetime.end.p0(i64 8, ptr %6) #8
  call void @llvm.lifetime.end.p0(i64 8, ptr %5) #8
  ret i32 0
}