; Function Attrs: nounwind uwtable
define noundef i32 @exec_blas_async(i64 noundef %0, ptr noundef %1) local_unnamed_addr #0 {
  %3 = load i32, ptr @blas_server_avail, align 128, !tbaa !3
  %4 = icmp eq i32 %3, 0
  br i1 %4, label %5, label %.preheader, !prof !28

5:                                                ; preds = %2
  %6 = tail call i32 @blas_thread_init()
  br label %.preheader

.preheader:                                       ; preds = %5, %2
  br label %7

7:                                                ; preds = %.preheader, %._crit_edge.i
  %8 = load volatile i64, ptr @exec_queue_lock, align 8, !tbaa !7
  %.not1.i = icmp eq i64 %8, 0
  br i1 %.not1.i, label %._crit_edge.i, label %.lr.ph.i

.lr.ph.i:                                         ; preds = %7, %.lr.ph.i
  tail call void asm sideeffect "nop;nop;nop;nop;nop;nop;nop;nop;\0A", "~{dirflag},~{fpsr},~{flags}"() #10, !srcloc !29
  %9 = load volatile i64, ptr @exec_queue_lock, align 8, !tbaa !7
  %.not.i = icmp eq i64 %9, 0
  br i1 %.not.i, label %._crit_edge.i, label %.lr.ph.i, !llvm.loop !30

._crit_edge.i:                                    ; preds = %.lr.ph.i, %7
  %10 = tail call i32 asm sideeffect "xchgl $0, $1\0A", "=r,=*m,0,*m,~{memory},~{dirflag},~{fpsr},~{flags}"(ptr nonnull elementtype(i64) @exec_queue_lock, i32 1, ptr nonnull elementtype(i64) @exec_queue_lock) #10, !srcloc !31
  %.not3.i = icmp eq i32 %10, 0
  br i1 %.not3.i, label %blas_lock.exit.preheader, label %7, !llvm.loop !32

blas_lock.exit.preheader:                         ; preds = %._crit_edge.i
  %.not38 = icmp eq ptr %1, null
  br i1 %.not38, label %blas_lock.exit._crit_edge.thread, label %.lr.ph42

blas_lock.exit._crit_edge.thread:                 ; preds = %blas_lock.exit.preheader
  tail call void asm sideeffect "", "~{memory},~{dirflag},~{fpsr},~{flags}"() #10, !srcloc !33
  store volatile i64 0, ptr @exec_queue_lock, align 8, !tbaa !7
  br label %._crit_edge47

.lr.ph42:                                         ; preds = %blas_lock.exit.preheader, %blas_lock.exit
  %.041 = phi i64 [ %26, %blas_lock.exit ], [ %0, %blas_lock.exit.preheader ]
  %.02940 = phi ptr [ %25, %blas_lock.exit ], [ %1, %blas_lock.exit.preheader ]
  %.03039 = phi i64 [ %.1.lcssa, %blas_lock.exit ], [ 0, %blas_lock.exit.preheader ]
  %11 = getelementptr inbounds nuw i8, ptr %.02940, i64 8
  store i64 %.041, ptr %11, align 8, !tbaa !34
  %12 = getelementptr inbounds [16 x %struct.thread_status_t], ptr @thread_status, i64 0, i64 %.03039
  %13 = load atomic volatile i64, ptr %12 monotonic, align 128
  %.not3436 = icmp eq i64 %13, 0
  br i1 %.not3436, label %blas_lock.exit, label %.lr.ph

.lr.ph:                                           ; preds = %.lr.ph42
  %14 = load i32, ptr @blas_num_threads, align 4, !tbaa !3
  %15 = add nsw i32 %14, -1
  %16 = sext i32 %15 to i64
  br label %17

17:                                               ; preds = %.lr.ph, %17
  %.137 = phi i64 [ %.03039, %.lr.ph ], [ %spec.store.select, %17 ]
  %18 = add nsw i64 %.137, 1
  %.not35 = icmp slt i64 %18, %16
  %spec.store.select = select i1 %.not35, i64 %18, i64 0
  %19 = getelementptr inbounds [16 x %struct.thread_status_t], ptr @thread_status, i64 0, i64 %spec.store.select
  %20 = load atomic volatile i64, ptr %19 monotonic, align 128
  %.not34 = icmp eq i64 %20, 0
  br i1 %.not34, label %blas_lock.exit, label %17, !llvm.loop !36

blas_lock.exit:                                   ; preds = %17, %.lr.ph42
  %.1.lcssa = phi i64 [ %.03039, %.lr.ph42 ], [ %spec.store.select, %17 ]
  %21 = getelementptr inbounds nuw i8, ptr %.02940, i64 16
  store i64 %.1.lcssa, ptr %21, align 8, !tbaa !37
  tail call void asm sideeffect "", "~{memory},~{dirflag},~{fpsr},~{flags}"() #10, !srcloc !38
  %22 = getelementptr inbounds [16 x %struct.thread_status_t], ptr @thread_status, i64 0, i64 %.1.lcssa
  %23 = ptrtoint ptr %.02940 to i64
  store atomic volatile i64 %23, ptr %22 monotonic, align 128
  %24 = getelementptr inbounds nuw i8, ptr %.02940, i64 64
  %25 = load ptr, ptr %24, align 8, !tbaa !39
  %26 = add nsw i64 %.041, 1
  %.not = icmp eq ptr %25, null
  br i1 %.not, label %blas_lock.exit._crit_edge, label %.lr.ph42, !llvm.loop !40

blas_lock.exit._crit_edge:                        ; preds = %blas_lock.exit
  tail call void asm sideeffect "", "~{memory},~{dirflag},~{fpsr},~{flags}"() #10, !srcloc !33
  store volatile i64 0, ptr @exec_queue_lock, align 8, !tbaa !7
  br label %.lr.ph46

.lr.ph46:                                         ; preds = %blas_lock.exit._crit_edge, %46
  %.03144 = phi ptr [ %48, %46 ], [ %1, %blas_lock.exit._crit_edge ]
  %27 = getelementptr inbounds nuw i8, ptr %.03144, i64 16
  %28 = load i64, ptr %27, align 8, !tbaa !37
  %29 = getelementptr inbounds [16 x %struct.thread_status_t], ptr @thread_status, i64 0, i64 %28
  %30 = load atomic volatile i64, ptr %29 monotonic, align 128
  %31 = icmp ugt i64 %30, 1
  br i1 %31, label %32, label %46

32:                                               ; preds = %.lr.ph46
  %33 = getelementptr inbounds nuw i8, ptr %29, i64 16
  %34 = tail call i32 @pthread_mutex_lock(ptr noundef nonnull %33) #10
  %35 = getelementptr inbounds nuw i8, ptr %29, i64 8
  %36 = load volatile i64, ptr %35, align 8, !tbaa !14
  %37 = icmp eq i64 %36, 2
  br i1 %37, label %38, label %44

38:                                               ; preds = %32
  %39 = load volatile i64, ptr %35, align 8, !tbaa !14
  %40 = icmp eq i64 %39, 2
  br i1 %40, label %41, label %44

41:                                               ; preds = %38
  store volatile i64 4, ptr %35, align 8, !tbaa !14
  %42 = getelementptr inbounds nuw i8, ptr %29, i64 56
  %43 = tail call i32 @pthread_cond_signal(ptr noundef nonnull %42) #10
  br label %44

44:                                               ; preds = %38, %41, %32
  %45 = tail call i32 @pthread_mutex_unlock(ptr noundef nonnull %33) #10
  br label %46

46:                                               ; preds = %44, %.lr.ph46
  %47 = getelementptr inbounds nuw i8, ptr %.03144, i64 64
  %48 = load ptr, ptr %47, align 8, !tbaa !39
  %.not33 = icmp eq ptr %48, null
  br i1 %.not33, label %._crit_edge47, label %.lr.ph46, !llvm.loop !41

._crit_edge47:                                    ; preds = %46, %blas_lock.exit._crit_edge.thread
  ret i32 0
}